(dp1
S'output'
p2
S"<type 'exceptions.NameError'> name 'label' is not defined"
p3
sS'layer'
p4
S'G:\\realpython\\web2py\\start\\applications\\pulse\\views\\default/pulser.html'
p5
sS'code'
p6
S'response.write(\'<!DOCTYPE html>\\r\\n<html>\\r\\n    <head>\\r\\n        <title>check your pulse</title>\\r\\n        <meta charset="utf-8" />\\r\\n        <style type="text/css">\\r\\n            body {font-family: Arial, Helvetica, sans-serif; font-size: x-large;}\\r\\n        </style>\\r\\n        \', escape=False)\nmiddle_columns = {0:\'span12\', 1:\'span9\', 2:\'span6\'}\nresponse.write(\'\\r\\n        \', escape=False)\nresponse.write(\'\\r\\n    </head>\\r\\n    <body>\\r\\n        <div class"\', escape=False)\nresponse.write(middle_columns)\nresponse.write(\'">\\r\\n            \', escape=False)\nresponse.write(\'\\r\\n            \', escape=False)\nresponse.write(\'\\r\\n\\r\\n<center>\\r\\n    <br/>\\r\\n    <br/>\\r\\n    <h1>your pulse</h1>\\r\\n    <p>\', escape=False)\nresponse.write(text)\nresponse.write(\'</p>\\r\\n    <p>is</p>\\r\\n    <h4>\', escape=False)\nresponse.write(label)\nresponse.write(\'</h4>\\r\\n    <br/>\\r\\n    <p><a href="/pulse/default/index">Another Pulse?</a></p>\\r\\n</center>\\r\\n\', escape=False)\nresponse.write(\'\\r\\n            \', escape=False)\nresponse.write(\'\\r\\n        </div>\\r\\n    </body>\\r\\n</html>\\r\\n\', escape=False)'
p7
sS'snapshot'
p8
(dp9
S'exception'
p10
(dp11
S'__hash__'
p12
S"<method-wrapper '__hash__' of exceptions.NameError object>"
p13
sS'__setattr__'
p14
S"<method-wrapper '__setattr__' of exceptions.NameError object>"
p15
sS'__reduce_ex__'
p16
S'<built-in method __reduce_ex__ of exceptions.NameError object>'
p17
sS'__getslice__'
p18
S"<method-wrapper '__getslice__' of exceptions.NameError object>"
p19
sS'__getitem__'
p20
S"<method-wrapper '__getitem__' of exceptions.NameError object>"
p21
sS'__setstate__'
p22
S'<built-in method __setstate__ of exceptions.NameError object>'
p23
sS'__reduce__'
p24
S'<built-in method __reduce__ of exceptions.NameError object>'
p25
sS'__str__'
p26
S"<method-wrapper '__str__' of exceptions.NameError object>"
p27
sS'__format__'
p28
S'<built-in method __format__ of exceptions.NameError object>'
p29
sS'__getattribute__'
p30
S"<method-wrapper '__getattribute__' of exceptions.NameError object>"
p31
sS'__class__'
p32
S"<type 'exceptions.NameError'>"
p33
sS'__unicode__'
p34
S'<built-in method __unicode__ of exceptions.NameError object>'
p35
sS'__delattr__'
p36
S"<method-wrapper '__delattr__' of exceptions.NameError object>"
p37
sS'__subclasshook__'
p38
S'<built-in method __subclasshook__ of type object>'
p39
sS'__repr__'
p40
S"<method-wrapper '__repr__' of exceptions.NameError object>"
p41
sS'__dict__'
p42
S'{}'
p43
sS'args'
p44
S'("name \'label\' is not defined",)'
p45
sS'__sizeof__'
p46
S'<built-in method __sizeof__ of exceptions.NameError object>'
p47
sS'__doc__'
p48
S"'Name not found globally.'"
p49
sS'__init__'
p50
S"<method-wrapper '__init__' of exceptions.NameError object>"
p51
sS'__new__'
p52
S'<built-in method __new__ of type object>'
p53
ssS'evalue'
p54
S"name 'label' is not defined"
p55
sS'request'
p56
cgluon.html
XML_unpickle
p57
(S'sJd\x00\x00<div><table><tr><td style="font-weight:bold;vertical-align:top;">ajax</td><td style="vertical-align:top;">:</td><td><div>False</div></td></tr><tr><td style="font-weight:bold;vertical-align:top;">application</td><td style="vertical-align:top;">:</td><td><div>pulse</div></td></tr><tr><td style="font-weight:bold;vertical-align:top;">args</td><td style="vertical-align:top;">:</td><td><div><table><tr><td><div>testing_another_pulse_is_not_very_fun</div></td></tr></table></div></td></tr><tr><td style="font-weight:bold;vertical-align:top;">cid</td><td style="vertical-align:top;">:</td><td><div>None</div></td></tr><tr><td style="font-weight:bold;vertical-align:top;">client</td><td style="vertical-align:top;">:</td><td><div>127.0.0.1</div></td></tr><tr><td style="font-weight:bold;vertical-align:top;">controller</td><td style="vertical-align:top;">:</td><td><div>default</div></td></tr><tr><td style="font-weight:bold;vertical-align:top;">cookies</td><td style="vertical-align:top;">:</td><td><div><table><tr><td style="font-weight:bold;vertical-align:top;">dev_appserver_login</td><td style="vertical-align:top;">:</td><td><div>test@example.com:False:185804764220139124118<table><tr><td style="font-weight:bold;vertical-align:top;">comment</td><td style="vertical-align:top;">:</td><td><div></div></td></tr><tr><td style="font-weight:bold;vertical-align:top;">domain</td><td style="vertical-align:top;">:</td><td><div></div></td></tr><tr><td style="font-weight:bold;vertical-align:top;">expires</td><td style="vertical-align:top;">:</td><td><div></div></td></tr><tr><td style="font-weight:bold;vertical-align:top;">httponly</td><td style="vertical-align:top;">:</td><td><div></div></td></tr><tr><td style="font-weight:bold;vertical-align:top;">max-age</td><td style="vertical-align:top;">:</td><td><div></div></td></tr><tr><td style="font-weight:bold;vertical-align:top;">path</td><td style="vertical-align:top;">:</td><td><div></div></td></tr><tr><td style="font-weight:bold;vertical-align:top;">secure</td><td style="vertical-align:top;">:</td><td><div></div></td></tr><tr><td style="font-weight:bold;vertical-align:top;">version</td><td style="vertical-align:top;">:</td><td><div></div></td></tr></table></div></td></tr><tr><td style="font-weight:bold;vertical-align:top;">session_id_admin</td><td style="vertical-align:top;">:</td><td><div>127.0.0.1-995d151e-87d3-46d5-a99f-1c888784b62c<table><tr><td style="font-weight:bold;vertical-align:top;">comment</td><td style="vertical-align:top;">:</td><td><div></div></td></tr><tr><td style="font-weight:bold;vertical-align:top;">domain</td><td style="vertical-align:top;">:</td><td><div></div></td></tr><tr><td style="font-weight:bold;vertical-align:top;">expires</td><td style="vertical-align:top;">:</td><td><div></div></td></tr><tr><td style="font-weight:bold;vertical-align:top;">httponly</td><td style="vertical-align:top;">:</td><td><div></div></td></tr><tr><td style="font-weight:bold;vertical-align:top;">max-age</td><td style="vertical-align:top;">:</td><td><div></div></td></tr><tr><td style="font-weight:bold;vertical-align:top;">path</td><td style="vertical-align:top;">:</td><td><div></div></td></tr><tr><td style="font-weight:bold;vertical-align:top;">secure</td><td style="vertical-align:top;">:</td><td><div></div></td></tr><tr><td style="font-weight:bold;vertical-align:top;">version</td><td style="vertical-align:top;">:</td><td><div></div></td></tr></table></div></td></tr><tr><td style="font-weight:bold;vertical-align:top;">session_id_pulse</td><td style="vertical-align:top;">:</td><td><div>127.0.0.1-0feefee5-c928-420b-a49e-7c28680e5eda<table><tr><td style="font-weight:bold;vertical-align:top;">comment</td><td style="vertical-align:top;">:</td><td><div></div></td></tr><tr><td style="font-weight:bold;vertical-align:top;">domain</td><td style="vertical-align:top;">:</td><td><div></div></td></tr><tr><td style="font-weight:bold;vertical-align:top;">expires</td><td style="vertical-align:top;">:</td><td><div></div></td></tr><tr><td style="font-weight:bold;vertical-align:top;">httponly</td><td style="vertical-align:top;">:</td><td><div></div></td></tr><tr><td style="font-weight:bold;vertical-align:top;">max-age</td><td style="vertical-align:top;">:</td><td><div></div></td></tr><tr><td style="font-weight:bold;vertical-align:top;">path</td><td style="vertical-align:top;">:</td><td><div></div></td></tr><tr><td style="font-weight:bold;vertical-align:top;">secure</td><td style="vertical-align:top;">:</td><td><div></div></td></tr><tr><td style="font-weight:bold;vertical-align:top;">version</td><td style="vertical-align:top;">:</td><td><div></div></td></tr></table></div></td></tr><tr><td style="font-weight:bold;vertical-align:top;">session_id_welcome</td><td style="vertical-align:top;">:</td><td><div>127.0.0.1-7716eb5a-b240-462a-b8fb-f71bf5a846ff<table><tr><td style="font-weight:bold;vertical-align:top;">comment</td><td style="vertical-align:top;">:</td><td><div></div></td></tr><tr><td style="font-weight:bold;vertical-align:top;">domain</td><td style="vertical-align:top;">:</td><td><div></div></td></tr><tr><td style="font-weight:bold;vertical-align:top;">expires</td><td style="vertical-align:top;">:</td><td><div></div></td></tr><tr><td style="font-weight:bold;vertical-align:top;">httponly</td><td style="vertical-align:top;">:</td><td><div></div></td></tr><tr><td style="font-weight:bold;vertical-align:top;">max-age</td><td style="vertical-align:top;">:</td><td><div></div></td></tr><tr><td style="font-weight:bold;vertical-align:top;">path</td><td style="vertical-align:top;">:</td><td><div></div></td></tr><tr><td style="font-weight:bold;vertical-align:top;">secure</td><td style="vertical-align:top;">:</td><td><div></div></td></tr><tr><td style="font-weight:bold;vertical-align:top;">version</td><td style="vertical-align:top;">:</td><td><div></div></td></tr></table></div></td></tr></table></div></td></tr><tr><td style="font-weight:bold;vertical-align:top;">env</td><td style="vertical-align:top;">:</td><td><div><table><tr><td style="font-weight:bold;vertical-align:top;">HTTP_ACCEPT</td><td style="vertical-align:top;">:</td><td><div>text/html,application/xhtml+xml,application/xml;q=0.9,image/webp,*/*;q=0.8</div></td></tr><tr><td style="font-weight:bold;vertical-align:top;">HTTP_ACCEPT_ENCODING</td><td style="vertical-align:top;">:</td><td><div>gzip,deflate,sdch</div></td></tr><tr><td style="font-weight:bold;vertical-align:top;">HTTP_ACCEPT_LANGUAGE</td><td style="vertical-align:top;">:</td><td><div>en-US,en;q=0.8</div></td></tr><tr><td style="font-weight:bold;vertical-align:top;">HTTP_CACHE_CONTROL</td><td style="vertical-align:top;">:</td><td><div>max-age=0</div></td></tr><tr><td style="font-weight:bold;vertical-align:top;">HTTP_CONNECTION</td><td style="vertical-align:top;">:</td><td><div>keep-alive</div></td></tr><tr><td style="font-weight:bold;vertical-align:top;">HTTP_COOKIE</td><td style="vertical-align:top;">:</td><td><div>dev_appserver_login=&quot;test@example.com:False:185804764220139124118&quot;; session_id_welcome=127.0.0.1-7716eb5a-b240-462a-b8fb-f71bf5a846ff; session_id_admin=127.0.0.1-995d151e-87d3-46d5-a99f-1c888784b62c; session_id_pulse=127.0.0.1-0feefee5-c928-420b-a49e-7c28680e5eda</div></td></tr><tr><td style="font-weight:bold;vertical-align:top;">HTTP_DNT</td><td style="vertical-align:top;">:</td><td><div>1</div></td></tr><tr><td style="font-weight:bold;vertical-align:top;">HTTP_HOST</td><td style="vertical-align:top;">:</td><td><div>localhost:8000</div></td></tr><tr><td style="font-weight:bold;vertical-align:top;">HTTP_REFERER</td><td style="vertical-align:top;">:</td><td><div>http://localhost:8000/pulse/default/index</div></td></tr><tr><td style="font-weight:bold;vertical-align:top;">HTTP_USER_AGENT</td><td style="vertical-align:top;">:</td><td><div>Mozilla/5.0 (Windows NT 6.3; WOW64) AppleWebKit/537.36 (KHTML, like Gecko) Chrome/35.0.1916.153 Safari/537.36</div></td></tr><tr><td style="font-weight:bold;vertical-align:top;">PATH_INFO</td><td style="vertical-align:top;">:</td><td><div>/pulse/default/pulser/testing another pulse is not very fun</div></td></tr><tr><td style="font-weight:bold;vertical-align:top;">QUERY_STRING</td><td style="vertical-align:top;">:</td><td><div></div></td></tr><tr><td style="font-weight:bold;vertical-align:top;">REMOTE_ADDR</td><td style="vertical-align:top;">:</td><td><div>127.0.0.1</div></td></tr><tr><td style="font-weight:bold;vertical-align:top;">REMOTE_PORT</td><td style="vertical-align:top;">:</td><td><div>52842</div></td></tr><tr><td style="font-weight:bold;vertical-align:top;">REQUEST_METHOD</td><td style="vertical-align:top;">:</td><td><div>GET</div></td></tr><tr><td style="font-weight:bold;vertical-align:top;">SCRIPT_NAME</td><td style="vertical-align:top;">:</td><td><div></div></td></tr><tr><td style="font-weight:bold;vertical-align:top;">SERVER_NAME</td><td style="vertical-align:top;">:</td><td><div>davinci-vostro</div></td></tr><tr><td style="font-weight:bold;vertical-align:top;">SERVER_PORT</td><td style="vertical-align:top;">:</td><td><div>8000</div></td></tr><tr><td style="font-weight:bold;vertical-align:top;">SERVER_PROTOCOL</td><td style="vertical-align:top;">:</td><td><div>HTTP/1.1</div></td></tr><tr><td style="font-weight:bold;vertical-align:top;">SERVER_SOFTWARE</td><td style="vertical-align:top;">:</td><td><div>Rocket 1.2.6</div></td></tr><tr><td style="font-weight:bold;vertical-align:top;">app_folders</td><td style="vertical-align:top;">:</td><td><div>set([&#x27;G:\\\\realpython\\\\web2py\\\\start\\\\applications\\\\pulse\\\\&#x27;, &#x27;G:\\\\realpython\\\\web2py\\\\start\\\\applications\\\\admin\\\\&#x27;])</div></td></tr><tr><td style="font-weight:bold;vertical-align:top;">applications_parent</td><td style="vertical-align:top;">:</td><td><div>G:\\realpython\\web2py\\start</div></td></tr><tr><td style="font-weight:bold;vertical-align:top;">cmd_args</td><td style="vertical-align:top;">:</td><td><div><table></table></div></td></tr><tr><td style="font-weight:bold;vertical-align:top;">cmd_options</td><td style="vertical-align:top;">:</td><td><div>&lt;Values at 0x2f8f888: {&#x27;verbose&#x27;: False, &#x27;ip&#x27;: &#x27;127.0.0.1&#x27;, &#x27;debuglevel&#x27;: 30, &#x27;with_scheduler&#x27;: False, &#x27;ips&#x27;: [&#x27;192.168.1.107&#x27;], &#x27;shutdown_timeout&#x27;: 5, &#x27;taskbar&#x27;: False, &#x27;with_coverage&#x27;: False, &#x27;port&#x27;: 8000, &#x27;maxthreads&#x27;: None, &#x27;softcron&#x27;: False, &#x27;server_name&#x27;: &#x27;davinci-vostro&#x27;, &#x27;bpython&#x27;: False, &#x27;nogui&#x27;: False, &#x27;pid_filename&#x27;: &#x27;httpserver.pid&#x27;, &#x27;extcron&#x27;: False, &#x27;runcron&#x27;: False, &#x27;run_system_tests&#x27;: False, &#x27;test&#x27;: None, &#x27;folder&#x27;: &#x27;G:\\\\realpython\\\\web2py\\\\start&#x27;, &#x27;config&#x27;: &#x27;&#x27;, &#x27;minthreads&#x27;: None, &#x27;shell&#x27;: None, &#x27;run&#x27;: &#x27;&#x27;, &#x27;log_filename&#x27;: &#x27;httpserver.log&#x27;, &#x27;profiler_dir&#x27;: None, &#x27;args&#x27;: [&#x27;&#x27;], &#x27;socket_timeout&#x27;: 5, &#x27;ssl_ca_certificate&#x27;: None, &#x27;scheduler&#x27;: None, &#x27;interfaces&#x27;: None, &#x27;ssl_private_key&#x27;: &#x27;&#x27;, &#x27;scheduler_groups&#x27;: None, &#x27;password&#x27;: &#x27;Alexander22&#x27;, &#x27;request_queue_size&#x27;: 5, &#x27;ssl_certificate&#x27;: &#x27;&#x27;, &#x27;cronjob&#x27;: False, &#x27;numthreads&#x27;: None, &#x27;quiet&#x27;: False, &#x27;import_models&#x27;: False, &#x27;timeout&#x27;: 10, &#x27;plain&#x27;: False, &#x27;nobanner&#x27;: False}&gt;</div></td></tr><tr><td style="font-weight:bold;vertical-align:top;">db_sessions</td><td style="vertical-align:top;">:</td><td><div>set([])</div></td></tr><tr><td style="font-weight:bold;vertical-align:top;">debugging</td><td style="vertical-align:top;">:</td><td><div>True</div></td></tr><tr><td style="font-weight:bold;vertical-align:top;">gluon_parent</td><td style="vertical-align:top;">:</td><td><div>G:\\realpython\\web2py\\start</div></td></tr><tr><td style="font-weight:bold;vertical-align:top;">http_accept</td><td style="vertical-align:top;">:</td><td><div>text/html,application/xhtml+xml,application/xml;q=0.9,image/webp,*/*;q=0.8</div></td></tr><tr><td style="font-weight:bold;vertical-align:top;">http_accept_encoding</td><td style="vertical-align:top;">:</td><td><div>gzip,deflate,sdch</div></td></tr><tr><td style="font-weight:bold;vertical-align:top;">http_accept_language</td><td style="vertical-align:top;">:</td><td><div>en-US,en;q=0.8</div></td></tr><tr><td style="font-weight:bold;vertical-align:top;">http_cache_control</td><td style="vertical-align:top;">:</td><td><div>max-age=0</div></td></tr><tr><td style="font-weight:bold;vertical-align:top;">http_connection</td><td style="vertical-align:top;">:</td><td><div>keep-alive</div></td></tr><tr><td style="font-weight:bold;vertical-align:top;">http_cookie</td><td style="vertical-align:top;">:</td><td><div>dev_appserver_login=&quot;test@example.com:False:185804764220139124118&quot;; session_id_welcome=127.0.0.1-7716eb5a-b240-462a-b8fb-f71bf5a846ff; session_id_admin=127.0.0.1-995d151e-87d3-46d5-a99f-1c888784b62c; session_id_pulse=127.0.0.1-0feefee5-c928-420b-a49e-7c28680e5eda</div></td></tr><tr><td style="font-weight:bold;vertical-align:top;">http_dnt</td><td style="vertical-align:top;">:</td><td><div>1</div></td></tr><tr><td style="font-weight:bold;vertical-align:top;">http_host</td><td style="vertical-align:top;">:</td><td><div>localhost:8000</div></td></tr><tr><td style="font-weight:bold;vertical-align:top;">http_referer</td><td style="vertical-align:top;">:</td><td><div>http://localhost:8000/pulse/default/index</div></td></tr><tr><td style="font-weight:bold;vertical-align:top;">http_user_agent</td><td style="vertical-align:top;">:</td><td><div>Mozilla/5.0 (Windows NT 6.3; WOW64) AppleWebKit/537.36 (KHTML, like Gecko) Chrome/35.0.1916.153 Safari/537.36</div></td></tr><tr><td style="font-weight:bold;vertical-align:top;">is_jython</td><td style="vertical-align:top;">:</td><td><div>False</div></td></tr><tr><td style="font-weight:bold;vertical-align:top;">is_pypy</td><td style="vertical-align:top;">:</td><td><div>False</div></td></tr><tr><td style="font-weight:bold;vertical-align:top;">is_source</td><td style="vertical-align:top;">:</td><td><div>True</div></td></tr><tr><td style="font-weight:bold;vertical-align:top;">local_hosts</td><td style="vertical-align:top;">:</td><td><div><table><tr><td><div>fe80::3cf1:119:cd4b:7c83%8</div></td></tr><tr><td><div>davinci-vostro.hsd1.ga.comcast.net</div></td></tr><tr><td><div>::ffff:127.0.0.1</div></td></tr><tr><td><div>::1</div></td></tr><tr><td><div>192.168.1.107</div></td></tr><tr><td><div>davinci-vostro</div></td></tr><tr><td><div>2001:0:9d38:6abd:3cf1:119:cd4b:7c83</div></td></tr><tr><td><div>fe80::3028:e071:7419:cef8%2</div></td></tr><tr><td><div>127.0.0.1</div></td></tr></table></div></td></tr><tr><td style="font-weight:bold;vertical-align:top;">path_info</td><td style="vertical-align:top;">:</td><td><div>/pulse/default/pulser/testing another pulse is not very fun</div></td></tr><tr><td style="font-weight:bold;vertical-align:top;">query_string</td><td style="vertical-align:top;">:</td><td><div></div></td></tr><tr><td style="font-weight:bold;vertical-align:top;">remote_addr</td><td style="vertical-align:top;">:</td><td><div>127.0.0.1</div></td></tr><tr><td style="font-weight:bold;vertical-align:top;">remote_port</td><td style="vertical-align:top;">:</td><td><div>52842</div></td></tr><tr><td style="font-weight:bold;vertical-align:top;">request_method</td><td style="vertical-align:top;">:</td><td><div>GET</div></td></tr><tr><td style="font-weight:bold;vertical-align:top;">request_uri</td><td style="vertical-align:top;">:</td><td><div>/pulse/default/pulser/testing another pulse is not very fun</div></td></tr><tr><td style="font-weight:bold;vertical-align:top;">script_name</td><td style="vertical-align:top;">:</td><td><div></div></td></tr><tr><td style="font-weight:bold;vertical-align:top;">server_name</td><td style="vertical-align:top;">:</td><td><div>davinci-vostro</div></td></tr><tr><td style="font-weight:bold;vertical-align:top;">server_port</td><td style="vertical-align:top;">:</td><td><div>8000</div></td></tr><tr><td style="font-weight:bold;vertical-align:top;">server_protocol</td><td style="vertical-align:top;">:</td><td><div>HTTP/1.1</div></td></tr><tr><td style="font-weight:bold;vertical-align:top;">server_software</td><td style="vertical-align:top;">:</td><td><div>Rocket 1.2.6</div></td></tr><tr><td style="font-weight:bold;vertical-align:top;">web2py_path</td><td style="vertical-align:top;">:</td><td><div>G:\\realpython\\web2py\\start</div></td></tr><tr><td style="font-weight:bold;vertical-align:top;">web2py_version</td><td style="vertical-align:top;">:</td><td><div>2.9.5-stable+timestamp.2014.03.16.02.35.39</div></td></tr><tr><td style="font-weight:bold;vertical-align:top;">wsgi.errors</td><td style="vertical-align:top;">:</td><td><div>&lt;open file &#x27;&lt;stderr&gt;&#x27;, mode &#x27;w&#x27; at 0x0000000001CBF150&gt;</div></td></tr><tr><td style="font-weight:bold;vertical-align:top;">wsgi.file_wrapper</td><td style="vertical-align:top;">:</td><td><div>&lt;class wsgiref.util.FileWrapper at 0x0000000002F0A7C8&gt;</div></td></tr><tr><td style="font-weight:bold;vertical-align:top;">wsgi.input</td><td style="vertical-align:top;">:</td><td><div>&lt;socket._fileobject object at 0x0000000004164B10&gt;</div></td></tr><tr><td style="font-weight:bold;vertical-align:top;">wsgi.multiprocess</td><td style="vertical-align:top;">:</td><td><div>False</div></td></tr><tr><td style="font-weight:bold;vertical-align:top;">wsgi.multithread</td><td style="vertical-align:top;">:</td><td><div>True</div></td></tr><tr><td style="font-weight:bold;vertical-align:top;">wsgi.run_once</td><td style="vertical-align:top;">:</td><td><div>False</div></td></tr><tr><td style="font-weight:bold;vertical-align:top;">wsgi.url_scheme</td><td style="vertical-align:top;">:</td><td><div>http</div></td></tr><tr><td style="font-weight:bold;vertical-align:top;">wsgi.version</td><td style="vertical-align:top;">:</td><td><div><table><tr><td><div>1</div></td></tr><tr><td><div>0</div></td></tr></table></div></td></tr><tr><td style="font-weight:bold;vertical-align:top;">wsgi_errors</td><td style="vertical-align:top;">:</td><td><div>&lt;open file &#x27;&lt;stderr&gt;&#x27;, mode &#x27;w&#x27; at 0x0000000001CBF150&gt;</div></td></tr><tr><td style="font-weight:bold;vertical-align:top;">wsgi_file_wrapper</td><td style="vertical-align:top;">:</td><td><div>&lt;class wsgiref.util.FileWrapper at 0x0000000002F0A7C8&gt;</div></td></tr><tr><td style="font-weight:bold;vertical-align:top;">wsgi_input</td><td style="vertical-align:top;">:</td><td><div>&lt;socket._fileobject object at 0x0000000004164B10&gt;</div></td></tr><tr><td style="font-weight:bold;vertical-align:top;">wsgi_multiprocess</td><td style="vertical-align:top;">:</td><td><div>False</div></td></tr><tr><td style="font-weight:bold;vertical-align:top;">wsgi_multithread</td><td style="vertical-align:top;">:</td><td><div>True</div></td></tr><tr><td style="font-weight:bold;vertical-align:top;">wsgi_run_once</td><td style="vertical-align:top;">:</td><td><div>False</div></td></tr><tr><td style="font-weight:bold;vertical-align:top;">wsgi_url_scheme</td><td style="vertical-align:top;">:</td><td><div>http</div></td></tr><tr><td style="font-weight:bold;vertical-align:top;">wsgi_version</td><td style="vertical-align:top;">:</td><td><div><table><tr><td><div>1</div></td></tr><tr><td><div>0</div></td></tr></table></div></td></tr></table></div></td></tr><tr><td style="font-weight:bold;vertical-align:top;">extension</td><td style="vertical-align:top;">:</td><td><div>html</div></td></tr><tr><td style="font-weight:bold;vertical-align:top;">folder</td><td style="vertical-align:top;">:</td><td><div>G:\\realpython\\web2py\\start\\applications\\pulse\\</div></td></tr><tr><td style="font-weight:bold;vertical-align:top;">function</td><td style="vertical-align:top;">:</td><td><div>pulser</div></td></tr><tr><td style="font-weight:bold;vertical-align:top;">global_settings</td><td style="vertical-align:top;">:</td><td><div><table><tr><td style="font-weight:bold;vertical-align:top;">app_folders</td><td style="vertical-align:top;">:</td><td><div>set([&#x27;G:\\\\realpython\\\\web2py\\\\start\\\\applications\\\\pulse\\\\&#x27;, &#x27;G:\\\\realpython\\\\web2py\\\\start\\\\applications\\\\admin\\\\&#x27;])</div></td></tr><tr><td style="font-weight:bold;vertical-align:top;">applications_parent</td><td style="vertical-align:top;">:</td><td><div>G:\\realpython\\web2py\\start</div></td></tr><tr><td style="font-weight:bold;vertical-align:top;">cmd_args</td><td style="vertical-align:top;">:</td><td><div><table></table></div></td></tr><tr><td style="font-weight:bold;vertical-align:top;">cmd_options</td><td style="vertical-align:top;">:</td><td><div>&lt;Values at 0x2f8f888: {&#x27;verbose&#x27;: False, &#x27;ip&#x27;: &#x27;127.0.0.1&#x27;, &#x27;debuglevel&#x27;: 30, &#x27;with_scheduler&#x27;: False, &#x27;ips&#x27;: [&#x27;192.168.1.107&#x27;], &#x27;shutdown_timeout&#x27;: 5, &#x27;taskbar&#x27;: False, &#x27;with_coverage&#x27;: False, &#x27;port&#x27;: 8000, &#x27;maxthreads&#x27;: None, &#x27;softcron&#x27;: False, &#x27;server_name&#x27;: &#x27;davinci-vostro&#x27;, &#x27;bpython&#x27;: False, &#x27;nogui&#x27;: False, &#x27;pid_filename&#x27;: &#x27;httpserver.pid&#x27;, &#x27;extcron&#x27;: False, &#x27;runcron&#x27;: False, &#x27;run_system_tests&#x27;: False, &#x27;test&#x27;: None, &#x27;folder&#x27;: &#x27;G:\\\\realpython\\\\web2py\\\\start&#x27;, &#x27;config&#x27;: &#x27;&#x27;, &#x27;minthreads&#x27;: None, &#x27;shell&#x27;: None, &#x27;run&#x27;: &#x27;&#x27;, &#x27;log_filename&#x27;: &#x27;httpserver.log&#x27;, &#x27;profiler_dir&#x27;: None, &#x27;args&#x27;: [&#x27;&#x27;], &#x27;socket_timeout&#x27;: 5, &#x27;ssl_ca_certificate&#x27;: None, &#x27;scheduler&#x27;: None, &#x27;interfaces&#x27;: None, &#x27;ssl_private_key&#x27;: &#x27;&#x27;, &#x27;scheduler_groups&#x27;: None, &#x27;password&#x27;: &#x27;Alexander22&#x27;, &#x27;request_queue_size&#x27;: 5, &#x27;ssl_certificate&#x27;: &#x27;&#x27;, &#x27;cronjob&#x27;: False, &#x27;numthreads&#x27;: None, &#x27;quiet&#x27;: False, &#x27;import_models&#x27;: False, &#x27;timeout&#x27;: 10, &#x27;plain&#x27;: False, &#x27;nobanner&#x27;: False}&gt;</div></td></tr><tr><td style="font-weight:bold;vertical-align:top;">db_sessions</td><td style="vertical-align:top;">:</td><td><div>set([])</div></td></tr><tr><td style="font-weight:bold;vertical-align:top;">debugging</td><td style="vertical-align:top;">:</td><td><div>True</div></td></tr><tr><td style="font-weight:bold;vertical-align:top;">gluon_parent</td><td style="vertical-align:top;">:</td><td><div>G:\\realpython\\web2py\\start</div></td></tr><tr><td style="font-weight:bold;vertical-align:top;">is_jython</td><td style="vertical-align:top;">:</td><td><div>False</div></td></tr><tr><td style="font-weight:bold;vertical-align:top;">is_pypy</td><td style="vertical-align:top;">:</td><td><div>False</div></td></tr><tr><td style="font-weight:bold;vertical-align:top;">is_source</td><td style="vertical-align:top;">:</td><td><div>True</div></td></tr><tr><td style="font-weight:bold;vertical-align:top;">local_hosts</td><td style="vertical-align:top;">:</td><td><div><table><tr><td><div>fe80::3cf1:119:cd4b:7c83%8</div></td></tr><tr><td><div>davinci-vostro.hsd1.ga.comcast.net</div></td></tr><tr><td><div>::ffff:127.0.0.1</div></td></tr><tr><td><div>::1</div></td></tr><tr><td><div>192.168.1.107</div></td></tr><tr><td><div>davinci-vostro</div></td></tr><tr><td><div>2001:0:9d38:6abd:3cf1:119:cd4b:7c83</div></td></tr><tr><td><div>fe80::3028:e071:7419:cef8%2</div></td></tr><tr><td><div>127.0.0.1</div></td></tr></table></div></td></tr><tr><td style="font-weight:bold;vertical-align:top;">web2py_version</td><td style="vertical-align:top;">:</td><td><div>2.9.5-stable+timestamp.2014.03.16.02.35.39</div></td></tr></table></div></td></tr><tr><td style="font-weight:bold;vertical-align:top;">is_https</td><td style="vertical-align:top;">:</td><td><div>False</div></td></tr><tr><td style="font-weight:bold;vertical-align:top;">is_local</td><td style="vertical-align:top;">:</td><td><div>True</div></td></tr><tr><td style="font-weight:bold;vertical-align:top;">is_restful</td><td style="vertical-align:top;">:</td><td><div>False</div></td></tr><tr><td style="font-weight:bold;vertical-align:top;">now</td><td style="vertical-align:top;">:</td><td><div>datetime.datetime(2014, 6, 15, 22, 22, 8, 977000)</div></td></tr><tr><td style="font-weight:bold;vertical-align:top;">raw_args</td><td style="vertical-align:top;">:</td><td><div>testing another pulse is not very fun</div></td></tr><tr><td style="font-weight:bold;vertical-align:top;">raw_extension</td><td style="vertical-align:top;">:</td><td><div>None</div></td></tr><tr><td style="font-weight:bold;vertical-align:top;">url</td><td style="vertical-align:top;">:</td><td><div>/pulse/default/pulser/testing another pulse is not very fun</div></td></tr><tr><td style="font-weight:bold;vertical-align:top;">utcnow</td><td style="vertical-align:top;">:</td><td><div>datetime.datetime(2014, 6, 16, 2, 22, 8, 977000)</div></td></tr><tr><td style="font-weight:bold;vertical-align:top;">uuid</td><td style="vertical-align:top;">:</td><td><div>pulse/127.0.0.1.2014-06-15.22-22-08.61616071-8d7c-499a-bd16-cfe71bdf4aed</div></td></tr><tr><td style="font-weight:bold;vertical-align:top;">wsgi</td><td style="vertical-align:top;">:</td><td><div>&lt;gluon.main.LazyWSGI object at 0x0000000005D687B8&gt;</div></td></tr></table></div>'
tRp58
sS'frames'
p59
(lp60
(dp61
S'file'
p62
S'G:\\realpython\\web2py\\start\\gluon\\restricted.py'
p63
sS'dump'
p64
(dp65
S'environment'
p66
S"{'A': <class 'gluon.html.A'>, 'ANY_OF': <class 'gluon.validators.ANY_OF'>, 'Auth': <class 'gluon.tools.Auth'>, 'B': <class 'gluon.html.B'>, 'BEAUTIFY': <class 'gluon.html.BEAUTIFY'>, 'BODY': <class 'gluon.html.BODY'>, 'BR': <class 'gluon.html.BR'>, 'BUTTON': <class 'gluon.html.BUTTON'>, 'CAT': <class 'gluon.html.CAT'>, 'CENTER': <class 'gluon.html.CENTER'>, ...}"
p67
sS'ccode'
p68
S'<code object <module> at 00000000036F7330, file ...cations\\pulse\\views\\default/pulser.html", line 1>'
p69
ssS'lnum'
p70
I220
sS'lines'
p71
(dp72
I224
S'        # do not encapsulate (obfuscate) the original RestrictedError'
p73
sI215
S'    try:'
p74
sI216
S'        if isinstance(code, types.CodeType):'
p75
sI217
S'            ccode = code'
p76
sI218
S'        else:'
p77
sI219
S'            ccode = compile2(code, layer)'
p78
sI220
S'        exec ccode in environment'
p79
sI221
S'    except HTTP:'
p80
sI222
S'        raise'
p81
sI223
S'    except RestrictedError:'
p82
ssS'call'
p83
S'(code=r"response.write(\'<!DOCTYPE html>\\r\\n<html>\\r\\n   ...iv>\\r\\n    </body>\\r\\n</html>\\r\\n\', escape=False)", environment={\'A\': <class \'gluon.html.A\'>, \'ANY_OF\': <class \'gluon.validators.ANY_OF\'>, \'Auth\': <class \'gluon.tools.Auth\'>, \'B\': <class \'gluon.html.B\'>, \'BEAUTIFY\': <class \'gluon.html.BEAUTIFY\'>, \'BODY\': <class \'gluon.html.BODY\'>, \'BR\': <class \'gluon.html.BR\'>, \'BUTTON\': <class \'gluon.html.BUTTON\'>, \'CAT\': <class \'gluon.html.CAT\'>, \'CENTER\': <class \'gluon.html.CENTER\'>, ...}, layer=r\'G:\\realpython\\web2py\\start\\applications\\pulse\\views\\default/pulser.html\')'
p84
sS'func'
p85
S'restricted'
p86
sa(dp87
g62
S'G:\\realpython\\web2py\\start\\applications\\pulse\\views\\default\\pulser.html'
p88
sg64
(dp89
S'a'
S'undefined'
p90
sS'p'
g90
sS'href'
p91
g90
sS'Pulse'
p92
g90
sS'Another'
p93
g90
ssg70
I11
sg71
(dp94
I2
S"middle_columns = {0:'span12', 1:'span9', 2:'span6'}"
p95
sI3
S"response.write('\\r\\n        ', escape=False)"
p96
sI4
S'response.write(\'\\r\\n    </head>\\r\\n    <body>\\r\\n        <div class"\', escape=False)'
p97
sI5
S'response.write(middle_columns)'
p98
sI6
S'response.write(\'">\\r\\n            \', escape=False)'
p99
sI7
S"response.write('\\r\\n            ', escape=False)"
p100
sI8
S"response.write('\\r\\n\\r\\n<center>\\r\\n    <br/>\\r\\n    <br/>\\r\\n    <h1>your pulse</h1>\\r\\n    <p>', escape=False)"
p101
sI9
S'response.write(text)'
p102
sI10
S"response.write('</p>\\r\\n    <p>is</p>\\r\\n    <h4>', escape=False)"
p103
sI11
S'response.write(label)'
p104
sI12
S'response.write(\'</h4>\\r\\n    <br/>\\r\\n    <p><a href="/pulse/default/index">Another Pulse?</a></p>\\r\\n</center>\\r\\n\', escape=False)'
p105
sI13
S"response.write('\\r\\n            ', escape=False)"
p106
sI14
S"response.write('\\r\\n        </div>\\r\\n    </body>\\r\\n</html>\\r\\n', escape=False)"
p107
ssg83
S'()'
p108
sg85
S'<module>'
p109
sasS'pyver'
p110
S'Python 2.7.6: G:\\realpython\\web2py\\start\\env\\Scripts\\python.exe (prefix: G:\\realpython\\web2py\\start\\env)'
p111
sS'session'
p112
g57
(S's\x1a\x00\x00\x00<div><table></table></div>'
tRp113
sS'etype'
p114
S"<type 'exceptions.NameError'>"
p115
sS'date'
p116
S'Sun Jun 15 22:22:09 2014'
p117
sS'response'
p118
g57
(S'sh1\x00\x00<div><table><tr><td style="font-weight:bold;vertical-align:top;">body</td><td style="vertical-align:top;">:</td><td><div>&lt;cStringIO.StringO object at 0x0000000005D681F0&gt;</div></td></tr><tr><td style="font-weight:bold;vertical-align:top;">cookies</td><td style="vertical-align:top;">:</td><td><div><table><tr><td style="font-weight:bold;vertical-align:top;">session_id_pulse</td><td style="vertical-align:top;">:</td><td><div>127.0.0.1-0feefee5-c928-420b-a49e-7c28680e5eda<table><tr><td style="font-weight:bold;vertical-align:top;">comment</td><td style="vertical-align:top;">:</td><td><div></div></td></tr><tr><td style="font-weight:bold;vertical-align:top;">domain</td><td style="vertical-align:top;">:</td><td><div></div></td></tr><tr><td style="font-weight:bold;vertical-align:top;">expires</td><td style="vertical-align:top;">:</td><td><div></div></td></tr><tr><td style="font-weight:bold;vertical-align:top;">httponly</td><td style="vertical-align:top;">:</td><td><div></div></td></tr><tr><td style="font-weight:bold;vertical-align:top;">max-age</td><td style="vertical-align:top;">:</td><td><div></div></td></tr><tr><td style="font-weight:bold;vertical-align:top;">path</td><td style="vertical-align:top;">:</td><td><div>/</div></td></tr><tr><td style="font-weight:bold;vertical-align:top;">secure</td><td style="vertical-align:top;">:</td><td><div></div></td></tr><tr><td style="font-weight:bold;vertical-align:top;">version</td><td style="vertical-align:top;">:</td><td><div></div></td></tr></table></div></td></tr></table></div></td></tr><tr><td style="font-weight:bold;vertical-align:top;">delimiters</td><td style="vertical-align:top;">:</td><td><div><table><tr><td><div>{{</div></td></tr><tr><td><div>}}</div></td></tr></table></div></td></tr><tr><td style="font-weight:bold;vertical-align:top;">files</td><td style="vertical-align:top;">:</td><td><div><table></table></div></td></tr><tr><td style="font-weight:bold;vertical-align:top;">flash</td><td style="vertical-align:top;">:</td><td><div></div></td></tr><tr><td style="font-weight:bold;vertical-align:top;">generic_patterns</td><td style="vertical-align:top;">:</td><td><div><table><tr><td><div>*</div></td></tr></table></div></td></tr><tr><td style="font-weight:bold;vertical-align:top;">google_analytics_id</td><td style="vertical-align:top;">:</td><td><div>None</div></td></tr><tr><td style="font-weight:bold;vertical-align:top;">headers</td><td style="vertical-align:top;">:</td><td><div><table><tr><td style="font-weight:bold;vertical-align:top;">X-Powered-By</td><td style="vertical-align:top;">:</td><td><div>web2py</div></td></tr></table></div></td></tr><tr><td style="font-weight:bold;vertical-align:top;">logo</td><td style="vertical-align:top;">:</td><td><div><a class="brand" href="http://www.web2py.com/"><b>web<span>2</span>py</b>&trade;&nbsp;</a></div></td></tr><tr><td style="font-weight:bold;vertical-align:top;">menu</td><td style="vertical-align:top;">:</td><td><div><table><tr><td><div><table><tr><td><div>Home</div></td></tr><tr><td><div>False</div></td></tr><tr><td><div>/pulse/default/index</div></td></tr><tr><td><div><table></table></div></td></tr></table></div></td></tr><tr><td><div><table><tr><td><div><span class="highlighted">web2py</span></div></td></tr><tr><td><div>False</div></td></tr><tr><td><div>http://web2py.com</div></td></tr><tr><td><div><table><tr><td><div><table><tr><td><div>My Sites</div></td></tr><tr><td><div>False</div></td></tr><tr><td><div>/admin/default/site</div></td></tr></table></div></td></tr><tr><td><div><table><tr><td><div>This App</div></td></tr><tr><td><div>False</div></td></tr><tr><td><div>/admin/default/design/pulse</div></td></tr><tr><td><div>[(&lt;lazyT &#x27;Controller&#x27;&gt;, False, &#x27;/admin/default/edit/pulse/controllers/default.py&#x27;), (&lt;lazyT &#x27;View&#x27;&gt;, False, &#x27;/admin/default/edit/pulse/views/default/pulser.html&#x27;), (&lt;lazyT &#x27;Layout&#x27;&gt;, False, &#x27;/admin/default/edit/pulse/views/layout.html&#x27;), (&lt;lazyT &#x27;Stylesheet&#x27;&gt;, False, &#x27;/admin/default/edit/pulse/static/css/web2py.css&#x27;), (&lt;lazyT &#x27;DB Model&#x27;&gt;, False, &#x27;/admin/default/edit/pulse/models/db.py&#x27;), (&lt;lazyT &#x27;Menu Model&#x27;&gt;, False, &#x27;/admin/default/edit/pulse/models/menu.py&#x27;), (&lt;lazyT &#x27;Database&#x27;&gt;, False, &#x27;/pulse/appadmin/index&#x27;), (&lt;lazyT &#x27;Errors&#x27;&gt;, False, &#x27;/admin/default/errors/pulse&#x27;), (&lt;lazyT &#x27;About&#x27;&gt;, False, &#x27;/admin/default/about/pulse&#x27;)]</div></td></tr></table></div></td></tr><tr><td><div><table><tr><td><div>web2py.com</div></td></tr><tr><td><div>False</div></td></tr><tr><td><div>http://www.web2py.com</div></td></tr><tr><td><div>[(&lt;lazyT &#x27;Download&#x27;&gt;, False, &#x27;http://www.web2py.com/examples/default/download&#x27;), (&lt;lazyT &#x27;Support&#x27;&gt;, False, &#x27;http://www.web2py.com/examples/default/support&#x27;), (&lt;lazyT &#x27;Demo&#x27;&gt;, False, &#x27;http://web2py.com/demo_admin&#x27;), (&lt;lazyT &#x27;Quick Examples&#x27;&gt;, False, &#x27;http://web2py.com/examples/default/examples&#x27;), (&lt;lazyT &#x27;FAQ&#x27;&gt;, False, &#x27;http://web2py.com/AlterEgo&#x27;), (&lt;lazyT &#x27;Videos&#x27;&gt;, False, &#x27;http://www.web2py.com/examples/default/videos/&#x27;), (&lt;lazyT &#x27;Free Applications&#x27;&gt;, False, &#x27;http://web2py.com/appliances&#x27;), (&lt;lazyT &#x27;Plugins&#x27;&gt;, False, &#x27;http://web2py.com/plugins&#x27;), (&lt;lazyT &#x27;Layouts&#x27;&gt;, False, &#x27;http://web2py.com/layouts&#x27;), (&lt;lazyT &#x27;Recipes&#x27;&gt;, False, &#x27;http://web2pyslices.com/&#x27;), (&lt;lazyT &#x27;Semantic&#x27;&gt;, False, &#x27;http://web2py.com/semantic&#x27;)]</div></td></tr></table></div></td></tr><tr><td><div><table><tr><td><div>Documentation</div></td></tr><tr><td><div>False</div></td></tr><tr><td><div>http://www.web2py.com/book</div></td></tr><tr><td><div>[(&lt;lazyT &#x27;Preface&#x27;&gt;, False, &#x27;http://www.web2py.com/book/default/chapter/00&#x27;), (&lt;lazyT &#x27;Introduction&#x27;&gt;, False, &#x27;http://www.web2py.com/book/default/chapter/01&#x27;), (&lt;lazyT &#x27;Python&#x27;&gt;, False, &#x27;http://www.web2py.com/book/default/chapter/02&#x27;), (&lt;lazyT &#x27;Overview&#x27;&gt;, False, &#x27;http://www.web2py.com/book/default/chapter/03&#x27;), (&lt;lazyT &#x27;The Core&#x27;&gt;, False, &#x27;http://www.web2py.com/book/default/chapter/04&#x27;), (&lt;lazyT &#x27;The Views&#x27;&gt;, False, &#x27;http://www.web2py.com/book/default/chapter/05&#x27;), (&lt;lazyT &#x27;Database&#x27;&gt;, False, &#x27;http://www.web2py.com/book/default/chapter/06&#x27;), (&lt;lazyT &#x27;Forms and Validators&#x27;&gt;, False, &#x27;http://www.web2py.com/book/default/chapter/07&#x27;), (&lt;lazyT &#x27;Email and SMS&#x27;&gt;, False, &#x27;http://www.web2py.com/book/default/chapter/08&#x27;), (&lt;lazyT &#x27;Access Control&#x27;&gt;, False, &#x27;http://www.web2py.com/book/default/chapter/09&#x27;), (&lt;lazyT &#x27;Services&#x27;&gt;, False, &#x27;http://www.web2py.com/book/default/chapter/10&#x27;), (&lt;lazyT &#x27;Ajax Recipes&#x27;&gt;, False, &#x27;http://www.web2py.com/book/default/chapter/11&#x27;), (&lt;lazyT &#x27;Components and Plugins&#x27;&gt;, False, &#x27;http://www.web2py.com/book/default/chapter/12&#x27;), (&lt;lazyT &#x27;Deployment Recipes&#x27;&gt;, False, &#x27;http://www.web2py.com/book/default/chapter/13&#x27;), (&lt;lazyT &#x27;Other Recipes&#x27;&gt;, False, &#x27;http://www.web2py.com/book/default/chapter/14&#x27;), (&lt;lazyT &#x27;Buy this book&#x27;&gt;, False, &#x27;http://stores.lulu.com/web2py&#x27;)]</div></td></tr></table></div></td></tr><tr><td><div><table><tr><td><div>Community</div></td></tr><tr><td><div>False</div></td></tr><tr><td><div>None</div></td></tr><tr><td><div>[(&lt;lazyT &#x27;Groups&#x27;&gt;, False, &#x27;http://www.web2py.com/examples/default/usergroups&#x27;), (&lt;lazyT &#x27;Twitter&#x27;&gt;, False, &#x27;http://twitter.com/web2py&#x27;), (&lt;lazyT &#x27;Live Chat&#x27;&gt;, False, &#x27;http://webchat.freenode.net/?channels=web2py&#x27;)]</div></td></tr></table></div></td></tr><tr><td><div><table><tr><td><div>Plugins</div></td></tr><tr><td><div>False</div></td></tr><tr><td><div>None</div></td></tr><tr><td><div>[(&#x27;plugin_wiki&#x27;, False, &#x27;http://web2py.com/examples/default/download&#x27;), (&lt;lazyT &#x27;Other Plugins&#x27;&gt;, False, &#x27;http://web2py.com/plugins&#x27;), (&lt;lazyT &#x27;Layout Plugins&#x27;&gt;, False, &#x27;http://web2py.com/layouts&#x27;)]</div></td></tr></table></div></td></tr></table></div></td></tr></table></div></td></tr></table></div></td></tr><tr><td style="font-weight:bold;vertical-align:top;">meta</td><td style="vertical-align:top;">:</td><td><div><table><tr><td style="font-weight:bold;vertical-align:top;">author</td><td style="vertical-align:top;">:</td><td><div>Your Name &lt;you@example.com&gt;</div></td></tr><tr><td style="font-weight:bold;vertical-align:top;">generator</td><td style="vertical-align:top;">:</td><td><div>Web2py Web Framework</div></td></tr><tr><td style="font-weight:bold;vertical-align:top;">keywords</td><td style="vertical-align:top;">:</td><td><div>web2py, python, framework</div></td></tr></table></div></td></tr><tr><td style="font-weight:bold;vertical-align:top;">models_to_run</td><td style="vertical-align:top;">:</td><td><div><table><tr><td><div>^\\w+\\.py$</div></td></tr><tr><td><div>^default/\\w+\\.py$</div></td></tr><tr><td><div>^default/pulser/\\w+\\.py$</div></td></tr></table></div></td></tr><tr><td style="font-weight:bold;vertical-align:top;">postprocessing</td><td style="vertical-align:top;">:</td><td><div><table></table></div></td></tr><tr><td style="font-weight:bold;vertical-align:top;">session_client</td><td style="vertical-align:top;">:</td><td><div>127.0.0.1</div></td></tr><tr><td style="font-weight:bold;vertical-align:top;">session_cookie_compression_level</td><td style="vertical-align:top;">:</td><td><div>None</div></td></tr><tr><td style="font-weight:bold;vertical-align:top;">session_cookie_expires</td><td style="vertical-align:top;">:</td><td><div>None</div></td></tr><tr><td style="font-weight:bold;vertical-align:top;">session_cookie_key</td><td style="vertical-align:top;">:</td><td><div>None</div></td></tr><tr><td style="font-weight:bold;vertical-align:top;">session_data_name</td><td style="vertical-align:top;">:</td><td><div>session_data_pulse</div></td></tr><tr><td style="font-weight:bold;vertical-align:top;">session_file</td><td style="vertical-align:top;">:</td><td><div>&lt;open file &#x27;G:\\\\realpython\\\\web2py\\\\start\\\\applications\\\\pulse\\\\sessions\\\\127.0.0.1-0feefee5-c928-420b-a49e-7c28680e5eda&#x27;, mode &#x27;rb+&#x27; at 0x0000000004144C90&gt;</div></td></tr><tr><td style="font-weight:bold;vertical-align:top;">session_filename</td><td style="vertical-align:top;">:</td><td><div>G:\\realpython\\web2py\\start\\applications\\pulse\\sessions\\127.0.0.1-0feefee5-c928-420b-a49e-7c28680e5eda</div></td></tr><tr><td style="font-weight:bold;vertical-align:top;">session_hash</td><td style="vertical-align:top;">:</td><td><div>f451a71af46ca41e8bdfad19b5a1fe27</div></td></tr><tr><td style="font-weight:bold;vertical-align:top;">session_id</td><td style="vertical-align:top;">:</td><td><div>127.0.0.1-0feefee5-c928-420b-a49e-7c28680e5eda</div></td></tr><tr><td style="font-weight:bold;vertical-align:top;">session_id_name</td><td style="vertical-align:top;">:</td><td><div>session_id_pulse</div></td></tr><tr><td style="font-weight:bold;vertical-align:top;">session_locked</td><td style="vertical-align:top;">:</td><td><div>True</div></td></tr><tr><td style="font-weight:bold;vertical-align:top;">session_masterapp</td><td style="vertical-align:top;">:</td><td><div>pulse</div></td></tr><tr><td style="font-weight:bold;vertical-align:top;">session_new</td><td style="vertical-align:top;">:</td><td><div>False</div></td></tr><tr><td style="font-weight:bold;vertical-align:top;">session_storage_type</td><td style="vertical-align:top;">:</td><td><div>file</div></td></tr><tr><td style="font-weight:bold;vertical-align:top;">status</td><td style="vertical-align:top;">:</td><td><div>200</div></td></tr><tr><td style="font-weight:bold;vertical-align:top;">subtitle</td><td style="vertical-align:top;">:</td><td><div></div></td></tr><tr><td style="font-weight:bold;vertical-align:top;">title</td><td style="vertical-align:top;">:</td><td><div>Pulse</div></td></tr><tr><td style="font-weight:bold;vertical-align:top;">view</td><td style="vertical-align:top;">:</td><td><div>default/pulser.html</div></td></tr></table></div>'
tRp119
sS'locals'
p120
(dp121
S'Service'
p122
S"<class 'gluon.tools.Service'>"
p123
sS'text'
p124
S"'testing another pulse is not very fun'"
p125
sS'OBJECT'
p126
S"<class 'gluon.html.OBJECT'>"
p127
sS'SQLDB'
p128
S"<class 'gluon.dal.DAL'>"
p129
sg112
S"<Storage {'_formkey[default]': ['9f996cd6-e7e3-4...version': '35.0.1916.153', 'name': 'Chrome'}>}>}>"
p130
sS'LINK'
p131
S"<class 'gluon.html.LINK'>"
p132
sS'BR'
p133
S"<class 'gluon.html.BR'>"
p134
sS'local_import'
p135
S'<function <lambda>>'
p136
sS'OPTGROUP'
p137
S"<class 'gluon.html.OPTGROUP'>"
p138
sS'__package__'
p139
S'None'
p140
sS'PRE'
p141
S"<class 'gluon.html.PRE'>"
p142
sS'IS_INT_IN_RANGE'
p143
S"<class 'gluon.validators.IS_INT_IN_RANGE'>"
p144
sS'IS_LOWER'
p145
S"<class 'gluon.validators.IS_LOWER'>"
p146
sS'IS_STRONG'
p147
S"<class 'gluon.validators.IS_STRONG'>"
p148
sS'cache'
p149
S'<gluon.cache.Cache object>'
p150
sS'IS_IN_DB'
p151
S"<class 'gluon.validators.IS_IN_DB'>"
p152
sS'TAG'
p153
S'<gluon.html.__TAG__ object>'
p154
sS'SQLField'
p155
S"<class 'gluon.dal.Field'>"
p156
sS'mail'
p157
S'<gluon.tools.Mail object>'
p158
sS'BODY'
p159
S"<class 'gluon.html.BODY'>"
p160
sS'IS_DATE_IN_RANGE'
p161
S"<class 'gluon.validators.IS_DATE_IN_RANGE'>"
p162
sS'IFRAME'
p163
S"<class 'gluon.html.IFRAME'>"
p164
sS'URL'
p165
S'<function URL>'
p166
sS'__file__'
p167
S"r'G:\\realpython\\web2py\\start\\applications\\pulse\\views\\default/pulser.html'"
p168
sS'db'
p169
S'<DAL uri="sqlite://storage.sqlite">'
p170
sS'auth'
p171
S'<gluon.tools.Auth object>'
p172
sS'P'
S"<class 'gluon.html.P'>"
p173
sS'TFOOT'
p174
S"<class 'gluon.html.TFOOT'>"
p175
sS'XHTML'
p176
S"<class 'gluon.html.XHTML'>"
p177
sS'ON'
p178
S'True'
p179
sS'OL'
p180
S"<class 'gluon.html.OL'>"
p181
sS'TEXTAREA'
p182
S"<class 'gluon.html.TEXTAREA'>"
p183
sS'MENU'
p184
S"<class 'gluon.html.MENU'>"
p185
sS'IS_IMAGE'
p186
S"<class 'gluon.validators.IS_IMAGE'>"
p187
sS'EM'
p188
S"<class 'gluon.html.EM'>"
p189
sS'CODE'
p190
S"<class 'gluon.html.CODE'>"
p191
sS'HTTP'
p192
S"<class 'gluon.http.HTTP'>"
p193
sS'HR'
p194
S"<class 'gluon.html.HR'>"
p195
sS'IS_DATETIME'
p196
S"<class 'gluon.validators.IS_DATETIME'>"
p197
sS'STYLE'
p198
S"<class 'gluon.html.STYLE'>"
p199
sS'LABEL'
p200
S"<class 'gluon.html.LABEL'>"
p201
sS'CLEANUP'
p202
S"<class 'gluon.validators.CLEANUP'>"
p203
sS'plugins'
p204
S'<gluon.tools.PluginManager object>'
p205
sS'SELECT'
p206
S"<class 'gluon.html.SELECT'>"
p207
sS'use_janrain'
p208
S'<function use_janrain>'
p209
sS'CENTER'
p210
S"<class 'gluon.html.CENTER'>"
p211
sS'prettydate'
p212
S'<function prettydate>'
p213
sS'Crud'
p214
S"<class 'gluon.tools.Crud'>"
p215
sS'Auth'
p216
S"<class 'gluon.tools.Auth'>"
p217
sS'DEVELOPMENT_MENU'
p218
g179
sS'__builtins__'
p219
S"{'ArithmeticError': <type 'exceptions.ArithmeticError'>, 'AssertionError': <type 'exceptions.AssertionError'>, 'AttributeError': <type 'exceptions.AttributeError'>, 'BaseException': <type 'exceptions.BaseException'>, 'BufferError': <type 'exceptions.BufferError'>, 'BytesWarning': <type 'exceptions.BytesWarning'>, 'DeprecationWarning': <type 'exceptions.DeprecationWarning'>, 'EOFError': <type 'exceptions.EOFError'>, 'Ellipsis': Ellipsis, 'EnvironmentError': <type 'exceptions.EnvironmentError'>, ...}"
p220
sS'HTML'
p221
S"<class 'gluon.html.HTML'>"
p222
sS'SQLFORM'
p223
S"<class 'gluon.sqlhtml.SQLFORM'>"
p224
sS'LOAD'
p225
S'<function LOAD>'
p226
sS'redirect'
p227
S'<function redirect>'
p228
sS'FIELDSET'
p229
S"<class 'gluon.html.FIELDSET'>"
p230
sS'IS_EQUAL_TO'
p231
S"<class 'gluon.validators.IS_EQUAL_TO'>"
p232
sS'embed64'
p233
S'<function embed64>'
p234
sS'IS_LIST_OF'
p235
S"<class 'gluon.validators.IS_LIST_OF'>"
p236
sS'INPUT'
p237
S"<class 'gluon.html.INPUT'>"
p238
sS'EMBED'
p239
S"<class 'gluon.html.EMBED'>"
p240
sS'_'
S'<function _>'
p241
sS'H2'
p242
S"<class 'gluon.html.H2'>"
p243
sS'H3'
p244
S"<class 'gluon.html.H3'>"
p245
sS'BUTTON'
p246
S"<class 'gluon.html.BUTTON'>"
p247
sS'H1'
p248
S"<class 'gluon.html.H1'>"
p249
sS'H6'
p250
S"<class 'gluon.html.H6'>"
p251
sS'H4'
p252
S"<class 'gluon.html.H4'>"
p253
sS'H5'
p254
S"<class 'gluon.html.H5'>"
p255
sS'UL'
p256
S"<class 'gluon.html.UL'>"
p257
sS'IS_UPPER'
p258
S"<class 'gluon.validators.IS_UPPER'>"
p259
sS'xmlescape'
p260
S'<function xmlescape>'
p261
sS'IS_TIME'
p262
S"<class 'gluon.validators.IS_TIME'>"
p263
sS'OPTION'
p264
S"<class 'gluon.html.OPTION'>"
p265
sS'TITLE'
p266
S"<class 'gluon.html.TITLE'>"
p267
sS'CRYPT'
p268
S"<class 'gluon.validators.CRYPT'>"
p269
sS'IS_EMPTY_OR'
p270
S"<class 'gluon.validators.IS_EMPTY_OR'>"
p271
sS'MARKMIN'
p272
S"<class 'gluon.html.MARKMIN'>"
p273
sS'__name__'
p274
S"'__restricted__'"
p275
sS'STRONG'
p276
S"<class 'gluon.html.STRONG'>"
p277
sS'COL'
p278
S"<class 'gluon.html.COL'>"
p279
sS'service'
p280
S'<gluon.tools.Service object>'
p281
sS'SCRIPT'
p282
S"<class 'gluon.html.SCRIPT'>"
p283
sS'TABLE'
p284
S"<class 'gluon.html.TABLE'>"
p285
sS'IS_IPV4'
p286
S"<class 'gluon.validators.IS_IPV4'>"
p287
sS'IS_LENGTH'
p288
S"<class 'gluon.validators.IS_LENGTH'>"
p289
sS'IS_IPV6'
p290
S"<class 'gluon.validators.IS_IPV6'>"
p291
sS'XML'
p292
S"<class 'gluon.html.XML'>"
p293
sS'B'
S"<class 'gluon.html.B'>"
p294
sS'IMG'
p295
S"<class 'gluon.html.IMG'>"
p296
sS'SQLTABLE'
p297
S"<class 'gluon.sqlhtml.SQLTABLE'>"
p298
sS'IS_MATCH'
p299
S"<class 'gluon.validators.IS_MATCH'>"
p300
sS'IS_ALPHANUMERIC'
p301
S"<class 'gluon.validators.IS_ALPHANUMERIC'>"
p302
sS'SPAN'
p303
S"<class 'gluon.html.SPAN'>"
p304
sS'IS_JSON'
p305
S"<class 'gluon.validators.IS_JSON'>"
p306
sS'IS_IPADDRESS'
p307
S"<class 'gluon.validators.IS_IPADDRESS'>"
p308
sS'IS_SLUG'
p309
S"<class 'gluon.validators.IS_SLUG'>"
p310
sS'r'
S'\'{"probability": {"neg": 0.61344504742351291, "ne...491, "pos": 0.38655495257648714}, "label": "neg"}\''
p311
sS'META'
p312
S"<class 'gluon.html.META'>"
p313
sS'IS_DATE'
p314
S"<class 'gluon.validators.IS_DATE'>"
p315
sS'IS_EMAIL'
p316
S"<class 'gluon.validators.IS_EMAIL'>"
p317
sS'IS_NOT_EMPTY'
p318
S"<class 'gluon.validators.IS_NOT_EMPTY'>"
p319
sS'IS_FLOAT_IN_RANGE'
p320
S"<class 'gluon.validators.IS_FLOAT_IN_RANGE'>"
p321
sS'BEAUTIFY'
p322
S"<class 'gluon.html.BEAUTIFY'>"
p323
sS'TBODY'
p324
S"<class 'gluon.html.TBODY'>"
p325
sS'CAT'
p326
S"<class 'gluon.html.CAT'>"
p327
sS'Field'
p328
S"<class 'gluon.dal.Field'>"
p329
sS'IS_LIST_OF_EMAILS'
p330
S"<class 'gluon.validators.IS_LIST_OF_EMAILS'>"
p331
sS'middle_columns'
p332
S"{0: 'span12', 1: 'span9', 2: 'span6'}"
p333
sS'DIV'
p334
S"<class 'gluon.html.DIV'>"
p335
sS'LEGEND'
p336
S"<class 'gluon.html.LEGEND'>"
p337
sS'COLGROUP'
p338
S"<class 'gluon.html.COLGROUP'>"
p339
sS'DAL'
p340
S"<class 'gluon.dal.DAL'>"
p341
sS'TT'
p342
S"<class 'gluon.html.TT'>"
p343
sS'TR'
p344
S"<class 'gluon.html.TR'>"
p345
sS'LI'
p346
S"<class 'gluon.html.LI'>"
p347
sS'TH'
p348
S"<class 'gluon.html.TH'>"
p349
sS'TD'
p350
S"<class 'gluon.html.TD'>"
p351
sS'PluginManager'
p352
S"<class 'gluon.tools.PluginManager'>"
p353
sS'IS_URL'
p354
S"<class 'gluon.validators.IS_URL'>"
p355
sS'A'
S"<class 'gluon.html.A'>"
p356
sS'HEAD'
p357
S"<class 'gluon.html.HEAD'>"
p358
sS'IS_DATETIME_IN_RANGE'
p359
S"<class 'gluon.validators.IS_DATETIME_IN_RANGE'>"
p360
sS'FORM'
p361
S"<class 'gluon.html.FORM'>"
p362
sS'I'
S"<class 'gluon.html.I'>"
p363
sS'crud'
p364
S'<gluon.tools.Crud object>'
p365
sS'IS_NOT_IN_DB'
p366
S"<class 'gluon.validators.IS_NOT_IN_DB'>"
p367
sg118
S"<Storage {'body': <cStringIO.StringO object at 0...0000000036EE748>, 'view': 'default/pulser.html'}>"
p368
sS'THEAD'
p369
S"<class 'gluon.html.THEAD'>"
p370
sS'ANY_OF'
p371
S"<class 'gluon.validators.ANY_OF'>"
p372
sS'IS_NULL_OR'
p373
S"<class 'gluon.validators.IS_EMPTY_OR'>"
p374
sg56
S"<Storage {'_vars': None, 'function': 'pulser', '...alpython\\\\web2py\\\\start\\\\applications\\\\pulse\\\\'}>"
p375
sS'IS_EXPR'
p376
S"<class 'gluon.validators.IS_EXPR'>"
p377
sS'T'
S'<gluon.languages.translator object>'
p378
sS'IS_IN_SET'
p379
S"<class 'gluon.validators.IS_IN_SET'>"
p380
sS'IS_UPLOAD_FILENAME'
p381
S"<class 'gluon.validators.IS_UPLOAD_FILENAME'>"
p382
sS'IS_DECIMAL_IN_RANGE'
p383
S"<class 'gluon.validators.IS_DECIMAL_IN_RANGE'>"
p384
sssS'traceback'
p385
S'Traceback (most recent call last):\n  File "G:\\realpython\\web2py\\start\\gluon\\restricted.py", line 220, in restricted\n    exec ccode in environment\n  File "G:\\realpython\\web2py\\start\\applications\\pulse\\views\\default/pulser.html", line 11, in <module>\n    <p><a href="/pulse/default/index">Another Pulse?</a></p>\nNameError: name \'label\' is not defined\n'
p386
s.